; Function Attrs: mustprogress uwtable
define void @_ZNK10open_spiel3nim8NimState14ActionToStringB5cxx11Eil(ptr dead_on_unwind noalias writable sret(%"class.std::__cxx11::basic_string") align 8 %0, ptr noundef nonnull readonly align 8 captures(none) dereferenceable(108) %1, i32 %2, i64 noundef %3) unnamed_addr #3 align 2 {
_ZN4absl7debian28AlphaNumC2EPKc.exit:
  %4 = alloca [5 x %"class.absl::debian2::string_view"], align 8
  %5 = alloca %"class.absl::debian2::AlphaNum", align 8
  %6 = alloca %"class.absl::debian2::AlphaNum", align 8
  %7 = getelementptr inbounds nuw i8, ptr %1, i64 60
  %8 = load i32, ptr %7, align 4
  %9 = sext i32 %8 to i64
  %10 = srem i64 %3, %9
  %11 = sdiv i64 %3, %9
  %.sroa.0.0.extract.trunc = trunc nsw i64 %10 to i32
  %12 = add nsw i32 %.sroa.0.0.extract.trunc, 1
  %13 = getelementptr inbounds nuw i8, ptr %5, i64 16
  %14 = call noundef ptr @_ZN4absl7debian216numbers_internal15FastIntToBufferEiPc(i32 noundef %12, ptr noundef nonnull %13)
  %15 = ptrtoint ptr %14 to i64
  %16 = ptrtoint ptr %13 to i64
  %17 = sub i64 %15, %16
  store ptr %13, ptr %5, align 8
  %18 = icmp sgt i64 %17, -1
  br i1 %18, label %_ZN4absl7debian28AlphaNumC2Ei.exit, label %19

19:                                               ; preds = %_ZN4absl7debian28AlphaNumC2EPKc.exit
  call void @llvm.trap()
  unreachable

_ZN4absl7debian28AlphaNumC2Ei.exit:               ; preds = %_ZN4absl7debian28AlphaNumC2EPKc.exit
  %20 = trunc i64 %11 to i32
  %.sroa.2.0.extract.trunc = add i32 %20, 1
  %21 = getelementptr inbounds nuw i8, ptr %5, i64 8
  store i64 %17, ptr %21, align 8
  %22 = getelementptr inbounds nuw i8, ptr %6, i64 16
  %23 = call noundef ptr @_ZN4absl7debian216numbers_internal15FastIntToBufferEiPc(i32 noundef %.sroa.2.0.extract.trunc, ptr noundef nonnull %22)
  %24 = ptrtoint ptr %23 to i64
  %25 = ptrtoint ptr %22 to i64
  %26 = sub i64 %24, %25
  store ptr %22, ptr %6, align 8
  %27 = icmp sgt i64 %26, -1
  br i1 %27, label %_ZN4absl7debian28AlphaNumC2Ei.exit4, label %28

28:                                               ; preds = %_ZN4absl7debian28AlphaNumC2Ei.exit
  call void @llvm.trap()
  unreachable

_ZN4absl7debian28AlphaNumC2Ei.exit4:              ; preds = %_ZN4absl7debian28AlphaNumC2Ei.exit
  %29 = getelementptr inbounds nuw i8, ptr %6, i64 8
  store i64 %26, ptr %29, align 8
  call void @llvm.lifetime.start.p0(i64 80, ptr nonnull %4)
  store ptr @.str.22, ptr %4, align 8, !noalias !23
  %30 = getelementptr inbounds nuw i8, ptr %4, i64 8
  store i64 5, ptr %30, align 8, !noalias !23
  %31 = getelementptr inbounds nuw i8, ptr %4, i64 16
  %.sroa.0.0.copyload.i5.i = load ptr, ptr %5, align 8, !noalias !23
  %.sroa.2.0.copyload.i7.i = load i64, ptr %21, align 8, !noalias !23
  store ptr %.sroa.0.0.copyload.i5.i, ptr %31, align 8, !noalias !23
  %32 = getelementptr inbounds nuw i8, ptr %4, i64 24
  store i64 %.sroa.2.0.copyload.i7.i, ptr %32, align 8, !noalias !23
  %33 = getelementptr inbounds nuw i8, ptr %4, i64 32
  store ptr @.str.23, ptr %33, align 8, !noalias !23
  %34 = getelementptr inbounds nuw i8, ptr %4, i64 40
  store i64 7, ptr %34, align 8, !noalias !23
  %35 = getelementptr inbounds nuw i8, ptr %4, i64 48
  store ptr %22, ptr %35, align 8, !noalias !23
  %36 = getelementptr inbounds nuw i8, ptr %4, i64 56
  store i64 %26, ptr %36, align 8, !noalias !23
  %37 = getelementptr inbounds nuw i8, ptr %4, i64 64
  store ptr @.str.24, ptr %37, align 8, !noalias !23
  %38 = getelementptr inbounds nuw i8, ptr %4, i64 72
  store i64 1, ptr %38, align 8, !noalias !23
  call void @_ZN4absl7debian216strings_internal9CatPiecesB5cxx11ESt16initializer_listINS0_11string_viewEE(ptr dead_on_unwind writable sret(%"class.std::__cxx11::basic_string") align 8 %0, ptr nonnull %4, i64 5)
  call void @llvm.lifetime.end.p0(i64 80, ptr nonnull %4)
  ret void
}